target datalayout = "e-m:e-p270:32:32-p271:32:32-p272:64:64-i64:64-i128:128-f80:128-n8:16:32:64-S128"
target triple = "x86_64-pc-linux-gnu"

%struct.PgStat_EntryRef = type { ptr, ptr, i32, ptr, %struct.dlist_node }
%struct.dlist_node = type { ptr, ptr }
%struct.PgStat_StatDBEntry = type { i64, i64, i64, i64, i64, i64, i64, i64, i64, i64, i64, i64, i64, i64, i64, i64, i64, i64, i64, i64, i64, i64, i64, i64, i64, i64, i64, i64, i64, i64, i64, i64, i64 }

@pgStatBlockReadTime = dso_local global i64 0, align 8
@pgStatBlockWriteTime = dso_local global i64 0, align 8
@pgStatActiveTime = dso_local global i64 0, align 8
@pgStatTransactionIdleTime = dso_local global i64 0, align 8
@MyDatabaseId = external global i32, align 4
@pgLastSessionReportTime = internal global i64 0, align 8
@pgStatXactCommit = internal global i32 0, align 4
@pgStatXactRollback = internal global i32 0, align 4
@MyBackendType = external global i32, align 4

; Function Attrs: nounwind uwtable
define internal zeroext i1 @pgstat_should_report_connstat() #0 {
  %1 = load i32, ptr @MyBackendType, align 4
  %2 = icmp eq i32 %1, 1
  ret i1 %2
}

; Function Attrs: nounwind uwtable
define dso_local ptr @pgstat_prep_database_pending(i32 noundef %0) #0 {
  %2 = alloca i32, align 4
  %3 = alloca ptr, align 8
  store i32 %0, ptr %2, align 4
  call void @llvm.lifetime.start.p0(i64 8, ptr %3) #4
  %4 = load i32, ptr %2, align 4
  %5 = call ptr @pgstat_prep_pending_entry(i32 noundef 1, i32 noundef %4, i64 noundef 0, ptr noundef null)
  store ptr %5, ptr %3, align 8
  %6 = load ptr, ptr %3, align 8
  %7 = getelementptr inbounds nuw %struct.PgStat_EntryRef, ptr %6, i32 0, i32 3
  %8 = load ptr, ptr %7, align 8
  call void @llvm.lifetime.end.p0(i64 8, ptr %3) #4
  ret ptr %8
}

; Function Attrs: nounwind uwtable
define dso_local void @pgstat_update_dbstats(i64 noundef %0) #0 {
  %2 = alloca i64, align 8
  %3 = alloca ptr, align 8
  %4 = alloca i32, align 4
  %5 = alloca i64, align 8
  %6 = alloca i32, align 4
  store i64 %0, ptr %2, align 8
  call void @llvm.lifetime.start.p0(i64 8, ptr %3) #4
  %7 = load i32, ptr @MyDatabaseId, align 4
  %8 = icmp ne i32 %7, 0
  br i1 %8, label %10, label %9

9:                                                ; preds = %1
  store i32 1, ptr %4, align 4
  br label %60

10:                                               ; preds = %1
  %11 = load i32, ptr @MyDatabaseId, align 4
  %12 = call ptr @pgstat_prep_database_pending(i32 noundef %11)
  store ptr %12, ptr %3, align 8
  %13 = load i32, ptr @pgStatXactCommit, align 4
  %14 = sext i32 %13 to i64
  %15 = load ptr, ptr %3, align 8
  %16 = getelementptr inbounds nuw %struct.PgStat_StatDBEntry, ptr %15, i32 0, i32 0
  %17 = load i64, ptr %16, align 8
  %18 = add i64 %17, %14
  store i64 %18, ptr %16, align 8
  %19 = load i32, ptr @pgStatXactRollback, align 4
  %20 = sext i32 %19 to i64
  %21 = load ptr, ptr %3, align 8
  %22 = getelementptr inbounds nuw %struct.PgStat_StatDBEntry, ptr %21, i32 0, i32 1
  %23 = load i64, ptr %22, align 8
  %24 = add i64 %23, %20
  store i64 %24, ptr %22, align 8
  %25 = load i64, ptr @pgStatBlockReadTime, align 8
  %26 = load ptr, ptr %3, align 8
  %27 = getelementptr inbounds nuw %struct.PgStat_StatDBEntry, ptr %26, i32 0, i32 21
  %28 = load i64, ptr %27, align 8
  %29 = add i64 %28, %25
  store i64 %29, ptr %27, align 8
  %30 = load i64, ptr @pgStatBlockWriteTime, align 8
  %31 = load ptr, ptr %3, align 8
  %32 = getelementptr inbounds nuw %struct.PgStat_StatDBEntry, ptr %31, i32 0, i32 22
  %33 = load i64, ptr %32, align 8
  %34 = add i64 %33, %30
  store i64 %34, ptr %32, align 8
  %35 = call zeroext i1 @pgstat_should_report_connstat()
  br i1 %35, label %36, label %59

36:                                               ; preds = %10
  call void @llvm.lifetime.start.p0(i64 8, ptr %5) #4
  call void @llvm.lifetime.start.p0(i64 4, ptr %6) #4
  %37 = load i64, ptr @pgLastSessionReportTime, align 8
  %38 = load i64, ptr %2, align 8
  call void @TimestampDifference(i64 noundef %37, i64 noundef %38, ptr noundef %5, ptr noundef %6)
  %39 = load i64, ptr %2, align 8
  store i64 %39, ptr @pgLastSessionReportTime, align 8
  %40 = load i64, ptr %5, align 8
  %41 = mul i64 %40, 1000000
  %42 = load i32, ptr %6, align 4
  %43 = sext i32 %42 to i64
  %44 = add i64 %41, %43
  %45 = load ptr, ptr %3, align 8
  %46 = getelementptr inbounds nuw %struct.PgStat_StatDBEntry, ptr %45, i32 0, i32 24
  %47 = load i64, ptr %46, align 8
  %48 = add i64 %47, %44
  store i64 %48, ptr %46, align 8
  %49 = load i64, ptr @pgStatActiveTime, align 8
  %50 = load ptr, ptr %3, align 8
  %51 = getelementptr inbounds nuw %struct.PgStat_StatDBEntry, ptr %50, i32 0, i32 25
  %52 = load i64, ptr %51, align 8
  %53 = add i64 %52, %49
  store i64 %53, ptr %51, align 8
  %54 = load i64, ptr @pgStatTransactionIdleTime, align 8
  %55 = load ptr, ptr %3, align 8
  %56 = getelementptr inbounds nuw %struct.PgStat_StatDBEntry, ptr %55, i32 0, i32 26
  %57 = load i64, ptr %56, align 8
  %58 = add i64 %57, %54
  store i64 %58, ptr %56, align 8
  call void @llvm.lifetime.end.p0(i64 4, ptr %6) #4
  call void @llvm.lifetime.end.p0(i64 8, ptr %5) #4
  br label %59

59:                                               ; preds = %36, %10
  store i32 0, ptr @pgStatXactCommit, align 4
  store i32 0, ptr @pgStatXactRollback, align 4
  store i64 0, ptr @pgStatBlockReadTime, align 8
  store i64 0, ptr @pgStatBlockWriteTime, align 8
  store i64 0, ptr @pgStatActiveTime, align 8
  store i64 0, ptr @pgStatTransactionIdleTime, align 8
  store i32 0, ptr %4, align 4
  br label %60

60:                                               ; preds = %59, %9
  call void @llvm.lifetime.end.p0(i64 8, ptr %3) #4
  %61 = load i32, ptr %4, align 4
  switch i32 %61, label %63 [
    i32 0, label %62
    i32 1, label %62
  ]

62:                                               ; preds = %60, %60
  ret void

63:                                               ; preds = %60
  unreachable
}