; Function Attrs: nounwind uwtable
define dso_local void @pgstat_update_dbstats(i64 noundef %0) local_unnamed_addr #0 {
  %2 = alloca i64, align 8
  %3 = alloca i32, align 4
  %4 = load i32, ptr @MyDatabaseId, align 4
  %.not = icmp eq i32 %4, 0
  br i1 %.not, label %47, label %5

5:                                                ; preds = %1
  %6 = tail call ptr @pgstat_prep_pending_entry(i32 noundef 1, i32 noundef %4, i64 noundef 0, ptr noundef null) #6
  %7 = getelementptr inbounds nuw i8, ptr %6, i64 24
  %8 = load ptr, ptr %7, align 8
  %9 = load i32, ptr @pgStatXactCommit, align 4
  %10 = sext i32 %9 to i64
  %11 = load i64, ptr %8, align 8
  %12 = add i64 %11, %10
  store i64 %12, ptr %8, align 8
  %13 = load i32, ptr @pgStatXactRollback, align 4
  %14 = sext i32 %13 to i64
  %15 = getelementptr inbounds nuw i8, ptr %8, i64 8
  %16 = load i64, ptr %15, align 8
  %17 = add i64 %16, %14
  store i64 %17, ptr %15, align 8
  %18 = load i64, ptr @pgStatBlockReadTime, align 8
  %19 = getelementptr inbounds nuw i8, ptr %8, i64 168
  %20 = load i64, ptr %19, align 8
  %21 = add i64 %20, %18
  store i64 %21, ptr %19, align 8
  %22 = load i64, ptr @pgStatBlockWriteTime, align 8
  %23 = getelementptr inbounds nuw i8, ptr %8, i64 176
  %24 = load i64, ptr %23, align 8
  %25 = add i64 %24, %22
  store i64 %25, ptr %23, align 8
  %26 = load i32, ptr @MyBackendType, align 4
  %27 = icmp eq i32 %26, 1
  br i1 %27, label %28, label %46

28:                                               ; preds = %5
  call void @llvm.lifetime.start.p0(i64 8, ptr nonnull %2) #6
  call void @llvm.lifetime.start.p0(i64 4, ptr nonnull %3) #6
  %29 = load i64, ptr @pgLastSessionReportTime, align 8
  call void @TimestampDifference(i64 noundef %29, i64 noundef %0, ptr noundef nonnull %2, ptr noundef nonnull %3) #6
  store i64 %0, ptr @pgLastSessionReportTime, align 8
  %30 = load i64, ptr %2, align 8
  %31 = mul i64 %30, 1000000
  %32 = load i32, ptr %3, align 4
  %33 = sext i32 %32 to i64
  %34 = add i64 %31, %33
  %35 = getelementptr inbounds nuw i8, ptr %8, i64 192
  %36 = load i64, ptr %35, align 8
  %37 = add i64 %34, %36
  store i64 %37, ptr %35, align 8
  %38 = load i64, ptr @pgStatActiveTime, align 8
  %39 = getelementptr inbounds nuw i8, ptr %8, i64 200
  %40 = load i64, ptr %39, align 8
  %41 = add i64 %40, %38
  store i64 %41, ptr %39, align 8
  %42 = load i64, ptr @pgStatTransactionIdleTime, align 8
  %43 = getelementptr inbounds nuw i8, ptr %8, i64 208
  %44 = load i64, ptr %43, align 8
  %45 = add i64 %44, %42
  store i64 %45, ptr %43, align 8
  call void @llvm.lifetime.end.p0(i64 4, ptr nonnull %3) #6
  call void @llvm.lifetime.end.p0(i64 8, ptr nonnull %2) #6
  br label %46

46:                                               ; preds = %28, %5
  store i32 0, ptr @pgStatXactCommit, align 4
  store i32 0, ptr @pgStatXactRollback, align 4
  store i64 0, ptr @pgStatBlockReadTime, align 8
  store i64 0, ptr @pgStatBlockWriteTime, align 8
  store i64 0, ptr @pgStatActiveTime, align 8
  store i64 0, ptr @pgStatTransactionIdleTime, align 8
  br label %47

47:                                               ; preds = %1, %46
  ret void
}